; Function Attrs: mustprogress uwtable
define noalias ptr @lean_st_mk_ref(ptr noundef %0, ptr noundef readnone captures(none) %1) local_unnamed_addr #0 {
  tail call void @lean_inc_heartbeat()
  %3 = tail call noalias ptr @mi_malloc_small(i64 noundef 16) #27
  %4 = icmp eq ptr %3, null
  br i1 %4, label %5, label %_ZL23lean_alloc_small_objectj.exit

5:                                                ; preds = %2
  tail call void @lean_internal_panic_out_of_memory() #28
  unreachable

_ZL23lean_alloc_small_objectj.exit:               ; preds = %2
  %6 = getelementptr inbounds nuw i8, ptr %3, i64 4
  store i32 1, ptr %3, align 4, !tbaa !7
  store i32 -50331632, ptr %6, align 4
  %7 = getelementptr inbounds nuw i8, ptr %3, i64 8
  store ptr %0, ptr %7, align 8, !tbaa !105
  tail call void @lean_inc_heartbeat()
  %8 = tail call noalias ptr @mi_malloc_small(i64 noundef 24) #27
  %9 = icmp eq ptr %8, null
  br i1 %9, label %10, label %_ZN4lean15io_result_mk_okEP11lean_object.exit

10:                                               ; preds = %_ZL23lean_alloc_small_objectj.exit
  tail call void @lean_internal_panic_out_of_memory() #28
  unreachable

_ZN4lean15io_result_mk_okEP11lean_object.exit:    ; preds = %_ZL23lean_alloc_small_objectj.exit
  %11 = getelementptr inbounds nuw i8, ptr %8, i64 4
  store i32 1, ptr %8, align 4, !tbaa !7
  store i32 131096, ptr %11, align 4
  %12 = getelementptr inbounds nuw i8, ptr %8, i64 8
  store ptr %3, ptr %12, align 8, !tbaa !3
  %13 = getelementptr inbounds nuw i8, ptr %8, i64 16
  store ptr inttoptr (i64 1 to ptr), ptr %13, align 8, !tbaa !3
  ret ptr %8
}